target datalayout = "e-m:e-p270:32:32-p271:32:32-p272:64:64-i64:64-i128:128-f80:128-n8:16:32:64-S128"
target triple = "x86_64-pc-linux-gnu"

%class.QString = type { %struct.QArrayDataPointer }
%struct.QArrayDataPointer = type { ptr, ptr, i64 }
%class.QSharedPointer = type { ptr, ptr }
%class.RtpPlayerDialog = type { %class.RtpBaseDialog.base, ptr, ptr, ptr, double, double, double, double, double, double, ptr, ptr, %class.QString, %class.QSharedPointer, %class.QSharedPointer.1, i8, %class.QList.2, ptr, %class.QTimer, i64, i32, ptr, i8, ptr, ptr, ptr, ptr, ptr, %class.QMultiHash, i8, i32, i8, double, ptr, %class.QPoint }
%class.RtpBaseDialog.base = type { %class.WiresharkDialog.base }
%class.WiresharkDialog.base = type <{ %class.GeometryStateDialog, ptr, i8, [7 x i8], %class.QString, %class.QList, i32, i8 }>
%class.GeometryStateDialog = type { %class.QDialog, %class.QString, ptr }
%class.QDialog = type { %class.QWidget }
%class.QWidget = type { %class.QObject, %class.QPaintDevice.base, ptr }
%class.QObject = type { ptr, %class.QScopedPointer }
%class.QScopedPointer = type { ptr }
%class.QPaintDevice.base = type <{ ptr, i16 }>
%class.QList = type { %struct.QArrayDataPointer.0 }
%struct.QArrayDataPointer.0 = type { ptr, ptr, i64 }
%class.QSharedPointer.1 = type { ptr, ptr }
%class.QList.2 = type { %struct.QArrayDataPointer.5 }
%struct.QArrayDataPointer.5 = type { ptr, ptr, i64 }
%class.QTimer = type { %class.QObject }
%class.QMultiHash = type { ptr, i64 }
%class.QPoint = type { i32, i32 }
%class.Ui_RtpPlayerDialog = type { ptr, ptr, ptr, ptr, ptr, ptr, ptr, ptr, ptr, ptr, ptr, ptr, ptr, ptr, ptr, ptr, ptr, ptr, ptr, ptr, ptr, ptr, ptr, ptr, ptr, ptr, ptr, ptr, ptr, ptr, ptr, ptr, ptr, ptr, ptr, ptr, ptr, ptr, ptr, ptr, ptr, ptr, ptr, ptr, ptr, ptr, ptr, ptr, ptr, ptr, ptr, ptr, ptr, ptr, ptr, ptr, ptr, ptr, ptr, ptr, ptr, ptr, ptr, ptr, ptr, ptr, ptr, ptr }

; Function Attrs: mustprogress null_pointer_is_valid sspstrong uwtable
define void @_ZN15RtpPlayerDialog28on_actionSelectAll_triggeredEv(ptr noundef align 8 dereferenceable_or_null(472) %0) #0 align 2 {
  %2 = alloca ptr, align 8
  store ptr %0, ptr %2, align 8
  %3 = load ptr, ptr %2, align 8
  %4 = getelementptr inbounds nuw %class.RtpPlayerDialog, ptr %3, i32 0, i32 1
  %5 = load ptr, ptr %4, align 8
  %6 = getelementptr inbounds nuw %class.Ui_RtpPlayerDialog, ptr %5, i32 0, i32 40
  %7 = load ptr, ptr %6, align 8
  %8 = load ptr, ptr %7, align 8
  %9 = getelementptr inbounds ptr, ptr %8, i64 69
  %10 = load ptr, ptr %9, align 8
  call void %10(ptr noundef align 8 dereferenceable_or_null(40) %7)
  call void @_ZN15RtpPlayerDialog15updateHintLabelEv(ptr noundef align 8 dereferenceable_or_null(472) %3)
  ret void
}