; Function Attrs: mustprogress null_pointer_is_valid sspstrong uwtable
define void @_ZN15RtpPlayerDialog28on_actionSelectAll_triggeredEv(ptr noundef align 8 dereferenceable_or_null(472) %0) local_unnamed_addr #0 align 2 {
  %2 = getelementptr inbounds nuw i8, ptr %0, i64 144
  %3 = load ptr, ptr %2, align 8
  %4 = getelementptr inbounds nuw i8, ptr %3, i64 320
  %5 = load ptr, ptr %4, align 8
  %6 = load ptr, ptr %5, align 8
  %7 = getelementptr inbounds nuw i8, ptr %6, i64 552
  %8 = load ptr, ptr %7, align 8
  tail call void %8(ptr noundef align 8 dereferenceable_or_null(40) %5)
  tail call void @_ZN15RtpPlayerDialog15updateHintLabelEv(ptr noundef align 8 dereferenceable_or_null(472) %0)
  ret void
}